target datalayout = "e-m:e-p270:32:32-p271:32:32-p272:64:64-i64:64-i128:128-f80:128-n8:16:32:64-S128"
target triple = "x86_64-pc-linux-gnu"

%struct._dcerpc_info = type { ptr, i32, i64, i8, i32, i32, i32, i32, i32, i32, i32, i32, i32, i32, ptr, ptr, ptr }

@ett_drsuapi_drsuapi_DsBindInfoCtr = internal global i32 -1, align 4
@hf_drsuapi_drsuapi_DsBindInfoCtr_info = internal global i32 -1, align 4
@hf_drsuapi_drsuapi_DsBindInfoCtr_length = internal global i32 -1, align 4
@hf_drsuapi_drsuapi_DsBindInfo_Fallback = internal global i32 -1, align 4
@hf_drsuapi_drsuapi_DsBindInfo_info24 = internal global i32 -1, align 4
@hf_drsuapi_drsuapi_DsBindInfo_info28 = internal global i32 -1, align 4
@hf_drsuapi_drsuapi_DsBindInfo_info32 = internal global i32 -1, align 4
@hf_drsuapi_drsuapi_DsBindInfo_info48 = internal global i32 -1, align 4
@hf_drsuapi_drsuapi_DsBindInfo_info52 = internal global i32 -1, align 4
@ett_drsuapi_drsuapi_DsBindInfo = internal global i32 -1, align 4
@.str.1431 = private unnamed_addr constant [19 x i8] c"drsuapi_DsBindInfo\00", align 1

; Function Attrs: nounwind uwtable
define internal i32 @drsuapi_dissect_element_DsBindInfo_Fallback(ptr noundef %0, i32 noundef %1, ptr noundef %2, ptr noundef %3, ptr noundef %4, ptr noundef %5) #0 {
  %7 = alloca ptr, align 8
  %8 = alloca i32, align 4
  %9 = alloca ptr, align 8
  %10 = alloca ptr, align 8
  %11 = alloca ptr, align 8
  %12 = alloca ptr, align 8
  store ptr %0, ptr %7, align 8
  store i32 %1, ptr %8, align 4
  store ptr %2, ptr %9, align 8
  store ptr %3, ptr %10, align 8
  store ptr %4, ptr %11, align 8
  store ptr %5, ptr %12, align 8
  %13 = load ptr, ptr %7, align 8
  %14 = load i32, ptr %8, align 4
  %15 = load ptr, ptr %9, align 8
  %16 = load ptr, ptr %10, align 8
  %17 = load ptr, ptr %11, align 8
  %18 = load ptr, ptr %12, align 8
  %19 = load i32, ptr @hf_drsuapi_drsuapi_DsBindInfo_Fallback, align 4
  %20 = call i32 @drsuapi_dissect_struct_DsBindInfoFallBack(ptr noundef %13, i32 noundef %14, ptr noundef %15, ptr noundef %16, ptr noundef %17, ptr noundef %18, i32 noundef %19, i32 noundef 0)
  store i32 %20, ptr %8, align 4
  %21 = load i32, ptr %8, align 4
  ret i32 %21
}

; Function Attrs: nounwind uwtable
define internal i32 @drsuapi_dissect_element_DsBindInfo_info52(ptr noundef %0, i32 noundef %1, ptr noundef %2, ptr noundef %3, ptr noundef %4, ptr noundef %5) #0 {
  %7 = alloca ptr, align 8
  %8 = alloca i32, align 4
  %9 = alloca ptr, align 8
  %10 = alloca ptr, align 8
  %11 = alloca ptr, align 8
  %12 = alloca ptr, align 8
  store ptr %0, ptr %7, align 8
  store i32 %1, ptr %8, align 4
  store ptr %2, ptr %9, align 8
  store ptr %3, ptr %10, align 8
  store ptr %4, ptr %11, align 8
  store ptr %5, ptr %12, align 8
  %13 = load ptr, ptr %7, align 8
  %14 = load i32, ptr %8, align 4
  %15 = load ptr, ptr %9, align 8
  %16 = load ptr, ptr %10, align 8
  %17 = load ptr, ptr %11, align 8
  %18 = load ptr, ptr %12, align 8
  %19 = load i32, ptr @hf_drsuapi_drsuapi_DsBindInfo_info52, align 4
  %20 = call i32 @drsuapi_dissect_struct_DsBindInfo52(ptr noundef %13, i32 noundef %14, ptr noundef %15, ptr noundef %16, ptr noundef %17, ptr noundef %18, i32 noundef %19, i32 noundef 0)
  store i32 %20, ptr %8, align 4
  %21 = load i32, ptr %8, align 4
  ret i32 %21
}

; Function Attrs: nounwind uwtable
define internal i32 @drsuapi_dissect_element_DsBindInfo_info48(ptr noundef %0, i32 noundef %1, ptr noundef %2, ptr noundef %3, ptr noundef %4, ptr noundef %5) #0 {
  %7 = alloca ptr, align 8
  %8 = alloca i32, align 4
  %9 = alloca ptr, align 8
  %10 = alloca ptr, align 8
  %11 = alloca ptr, align 8
  %12 = alloca ptr, align 8
  store ptr %0, ptr %7, align 8
  store i32 %1, ptr %8, align 4
  store ptr %2, ptr %9, align 8
  store ptr %3, ptr %10, align 8
  store ptr %4, ptr %11, align 8
  store ptr %5, ptr %12, align 8
  %13 = load ptr, ptr %7, align 8
  %14 = load i32, ptr %8, align 4
  %15 = load ptr, ptr %9, align 8
  %16 = load ptr, ptr %10, align 8
  %17 = load ptr, ptr %11, align 8
  %18 = load ptr, ptr %12, align 8
  %19 = load i32, ptr @hf_drsuapi_drsuapi_DsBindInfo_info48, align 4
  %20 = call i32 @drsuapi_dissect_struct_DsBindInfo48(ptr noundef %13, i32 noundef %14, ptr noundef %15, ptr noundef %16, ptr noundef %17, ptr noundef %18, i32 noundef %19, i32 noundef 0)
  store i32 %20, ptr %8, align 4
  %21 = load i32, ptr %8, align 4
  ret i32 %21
}

; Function Attrs: nounwind uwtable
define internal i32 @drsuapi_dissect_element_DsBindInfo_info32(ptr noundef %0, i32 noundef %1, ptr noundef %2, ptr noundef %3, ptr noundef %4, ptr noundef %5) #0 {
  %7 = alloca ptr, align 8
  %8 = alloca i32, align 4
  %9 = alloca ptr, align 8
  %10 = alloca ptr, align 8
  %11 = alloca ptr, align 8
  %12 = alloca ptr, align 8
  store ptr %0, ptr %7, align 8
  store i32 %1, ptr %8, align 4
  store ptr %2, ptr %9, align 8
  store ptr %3, ptr %10, align 8
  store ptr %4, ptr %11, align 8
  store ptr %5, ptr %12, align 8
  %13 = load ptr, ptr %7, align 8
  %14 = load i32, ptr %8, align 4
  %15 = load ptr, ptr %9, align 8
  %16 = load ptr, ptr %10, align 8
  %17 = load ptr, ptr %11, align 8
  %18 = load ptr, ptr %12, align 8
  %19 = load i32, ptr @hf_drsuapi_drsuapi_DsBindInfo_info32, align 4
  %20 = call i32 @drsuapi_dissect_struct_DsBindInfo32(ptr noundef %13, i32 noundef %14, ptr noundef %15, ptr noundef %16, ptr noundef %17, ptr noundef %18, i32 noundef %19, i32 noundef 0)
  store i32 %20, ptr %8, align 4
  %21 = load i32, ptr %8, align 4
  ret i32 %21
}

; Function Attrs: nounwind uwtable
define internal i32 @drsuapi_dissect_element_DsBindInfo_info28(ptr noundef %0, i32 noundef %1, ptr noundef %2, ptr noundef %3, ptr noundef %4, ptr noundef %5) #0 {
  %7 = alloca ptr, align 8
  %8 = alloca i32, align 4
  %9 = alloca ptr, align 8
  %10 = alloca ptr, align 8
  %11 = alloca ptr, align 8
  %12 = alloca ptr, align 8
  store ptr %0, ptr %7, align 8
  store i32 %1, ptr %8, align 4
  store ptr %2, ptr %9, align 8
  store ptr %3, ptr %10, align 8
  store ptr %4, ptr %11, align 8
  store ptr %5, ptr %12, align 8
  %13 = load ptr, ptr %7, align 8
  %14 = load i32, ptr %8, align 4
  %15 = load ptr, ptr %9, align 8
  %16 = load ptr, ptr %10, align 8
  %17 = load ptr, ptr %11, align 8
  %18 = load ptr, ptr %12, align 8
  %19 = load i32, ptr @hf_drsuapi_drsuapi_DsBindInfo_info28, align 4
  %20 = call i32 @drsuapi_dissect_struct_DsBindInfo28(ptr noundef %13, i32 noundef %14, ptr noundef %15, ptr noundef %16, ptr noundef %17, ptr noundef %18, i32 noundef %19, i32 noundef 0)
  store i32 %20, ptr %8, align 4
  %21 = load i32, ptr %8, align 4
  ret i32 %21
}

; Function Attrs: nounwind uwtable
define internal i32 @drsuapi_dissect_element_DsBindInfo_info24(ptr noundef %0, i32 noundef %1, ptr noundef %2, ptr noundef %3, ptr noundef %4, ptr noundef %5) #0 {
  %7 = alloca ptr, align 8
  %8 = alloca i32, align 4
  %9 = alloca ptr, align 8
  %10 = alloca ptr, align 8
  %11 = alloca ptr, align 8
  %12 = alloca ptr, align 8
  store ptr %0, ptr %7, align 8
  store i32 %1, ptr %8, align 4
  store ptr %2, ptr %9, align 8
  store ptr %3, ptr %10, align 8
  store ptr %4, ptr %11, align 8
  store ptr %5, ptr %12, align 8
  %13 = load ptr, ptr %7, align 8
  %14 = load i32, ptr %8, align 4
  %15 = load ptr, ptr %9, align 8
  %16 = load ptr, ptr %10, align 8
  %17 = load ptr, ptr %11, align 8
  %18 = load ptr, ptr %12, align 8
  %19 = load i32, ptr @hf_drsuapi_drsuapi_DsBindInfo_info24, align 4
  %20 = call i32 @drsuapi_dissect_struct_DsBindInfo24(ptr noundef %13, i32 noundef %14, ptr noundef %15, ptr noundef %16, ptr noundef %17, ptr noundef %18, i32 noundef %19, i32 noundef 0)
  store i32 %20, ptr %8, align 4
  %21 = load i32, ptr %8, align 4
  ret i32 %21
}

; Function Attrs: nounwind uwtable
define internal i32 @drsuapi_dissect_DsBindInfo(ptr noundef %0, i32 noundef %1, ptr noundef %2, ptr noundef %3, ptr noundef %4, ptr noundef %5, i32 noundef %6, i32 noundef %7) #0 {
  %9 = alloca ptr, align 8
  %10 = alloca i32, align 4
  %11 = alloca ptr, align 8
  %12 = alloca ptr, align 8
  %13 = alloca ptr, align 8
  %14 = alloca ptr, align 8
  %15 = alloca i32, align 4
  %16 = alloca i32, align 4
  %17 = alloca ptr, align 8
  %18 = alloca ptr, align 8
  %19 = alloca i32, align 4
  %20 = alloca i32, align 4
  store ptr %0, ptr %9, align 8
  store i32 %1, ptr %10, align 4
  store ptr %2, ptr %11, align 8
  store ptr %3, ptr %12, align 8
  store ptr %4, ptr %13, align 8
  store ptr %5, ptr %14, align 8
  store i32 %6, ptr %15, align 4
  store i32 %7, ptr %16, align 4
  store ptr null, ptr %17, align 8
  store ptr null, ptr %18, align 8
  %21 = load i32, ptr %10, align 4
  store i32 %21, ptr %19, align 4
  %22 = load ptr, ptr %12, align 8
  %23 = icmp ne ptr %22, null
  br i1 %23, label %24, label %30

24:                                               ; preds = %8
  %25 = load ptr, ptr %12, align 8
  %26 = load ptr, ptr %9, align 8
  %27 = load i32, ptr %10, align 4
  %28 = load i32, ptr @ett_drsuapi_drsuapi_DsBindInfo, align 4
  %29 = call ptr @proto_tree_add_subtree(ptr noundef %25, ptr noundef %26, i32 noundef %27, i32 noundef -1, i32 noundef %28, ptr noundef %17, ptr noundef @.str.1431)
  store ptr %29, ptr %18, align 8
  br label %30

30:                                               ; preds = %24, %8
  %31 = load ptr, ptr %9, align 8
  %32 = load i32, ptr %10, align 4
  %33 = load ptr, ptr %11, align 8
  %34 = load ptr, ptr %18, align 8
  %35 = load ptr, ptr %13, align 8
  %36 = load ptr, ptr %14, align 8
  %37 = load i32, ptr %15, align 4
  %38 = call i32 @dissect_ndr_uint32(ptr noundef %31, i32 noundef %32, ptr noundef %33, ptr noundef %34, ptr noundef %35, ptr noundef %36, i32 noundef %37, ptr noundef %20)
  store i32 %38, ptr %10, align 4
  %39 = load ptr, ptr %13, align 8
  %40 = getelementptr inbounds %struct._dcerpc_info, ptr %39, i32 0, i32 4
  %41 = load i32, ptr %40, align 4
  %42 = icmp ne i32 %41, 0
  br i1 %42, label %52, label %43

43:                                               ; preds = %30
  %44 = load i32, ptr %10, align 4
  %45 = and i32 %44, 3
  %46 = icmp ne i32 %45, 0
  br i1 %46, label %47, label %51

47:                                               ; preds = %43
  %48 = load i32, ptr %10, align 4
  %49 = and i32 %48, -4
  %50 = add i32 %49, 4
  store i32 %50, ptr %10, align 4
  br label %51

51:                                               ; preds = %47, %43
  br label %52

52:                                               ; preds = %51, %30
  %53 = load i32, ptr %20, align 4
  switch i32 %53, label %94 [
    i32 24, label %54
    i32 28, label %62
    i32 32, label %70
    i32 48, label %78
    i32 52, label %86
  ]

54:                                               ; preds = %52
  %55 = load ptr, ptr %9, align 8
  %56 = load i32, ptr %10, align 4
  %57 = load ptr, ptr %11, align 8
  %58 = load ptr, ptr %18, align 8
  %59 = load ptr, ptr %13, align 8
  %60 = load ptr, ptr %14, align 8
  %61 = call i32 @drsuapi_dissect_element_DsBindInfo_info24(ptr noundef %55, i32 noundef %56, ptr noundef %57, ptr noundef %58, ptr noundef %59, ptr noundef %60)
  store i32 %61, ptr %10, align 4
  br label %102

62:                                               ; preds = %52
  %63 = load ptr, ptr %9, align 8
  %64 = load i32, ptr %10, align 4
  %65 = load ptr, ptr %11, align 8
  %66 = load ptr, ptr %18, align 8
  %67 = load ptr, ptr %13, align 8
  %68 = load ptr, ptr %14, align 8
  %69 = call i32 @drsuapi_dissect_element_DsBindInfo_info28(ptr noundef %63, i32 noundef %64, ptr noundef %65, ptr noundef %66, ptr noundef %67, ptr noundef %68)
  store i32 %69, ptr %10, align 4
  br label %102

70:                                               ; preds = %52
  %71 = load ptr, ptr %9, align 8
  %72 = load i32, ptr %10, align 4
  %73 = load ptr, ptr %11, align 8
  %74 = load ptr, ptr %18, align 8
  %75 = load ptr, ptr %13, align 8
  %76 = load ptr, ptr %14, align 8
  %77 = call i32 @drsuapi_dissect_element_DsBindInfo_info32(ptr noundef %71, i32 noundef %72, ptr noundef %73, ptr noundef %74, ptr noundef %75, ptr noundef %76)
  store i32 %77, ptr %10, align 4
  br label %102

78:                                               ; preds = %52
  %79 = load ptr, ptr %9, align 8
  %80 = load i32, ptr %10, align 4
  %81 = load ptr, ptr %11, align 8
  %82 = load ptr, ptr %18, align 8
  %83 = load ptr, ptr %13, align 8
  %84 = load ptr, ptr %14, align 8
  %85 = call i32 @drsuapi_dissect_element_DsBindInfo_info48(ptr noundef %79, i32 noundef %80, ptr noundef %81, ptr noundef %82, ptr noundef %83, ptr noundef %84)
  store i32 %85, ptr %10, align 4
  br label %102

86:                                               ; preds = %52
  %87 = load ptr, ptr %9, align 8
  %88 = load i32, ptr %10, align 4
  %89 = load ptr, ptr %11, align 8
  %90 = load ptr, ptr %18, align 8
  %91 = load ptr, ptr %13, align 8
  %92 = load ptr, ptr %14, align 8
  %93 = call i32 @drsuapi_dissect_element_DsBindInfo_info52(ptr noundef %87, i32 noundef %88, ptr noundef %89, ptr noundef %90, ptr noundef %91, ptr noundef %92)
  store i32 %93, ptr %10, align 4
  br label %102

94:                                               ; preds = %52
  %95 = load ptr, ptr %9, align 8
  %96 = load i32, ptr %10, align 4
  %97 = load ptr, ptr %11, align 8
  %98 = load ptr, ptr %18, align 8
  %99 = load ptr, ptr %13, align 8
  %100 = load ptr, ptr %14, align 8
  %101 = call i32 @drsuapi_dissect_element_DsBindInfo_Fallback(ptr noundef %95, i32 noundef %96, ptr noundef %97, ptr noundef %98, ptr noundef %99, ptr noundef %100)
  store i32 %101, ptr %10, align 4
  br label %102

102:                                              ; preds = %94, %86, %78, %70, %62, %54
  %103 = load ptr, ptr %17, align 8
  %104 = load i32, ptr %10, align 4
  %105 = load i32, ptr %19, align 4
  %106 = sub i32 %104, %105
  call void @proto_item_set_len(ptr noundef %103, i32 noundef %106)
  %107 = load i32, ptr %10, align 4
  ret i32 %107
}

; Function Attrs: nounwind uwtable
define internal i32 @drsuapi_dissect_element_DsBindInfoCtr_info(ptr noundef %0, i32 noundef %1, ptr noundef %2, ptr noundef %3, ptr noundef %4, ptr noundef %5, ptr noundef %6) #0 {
  %8 = alloca i32, align 4
  %9 = alloca ptr, align 8
  %10 = alloca i32, align 4
  %11 = alloca ptr, align 8
  %12 = alloca ptr, align 8
  %13 = alloca ptr, align 8
  %14 = alloca ptr, align 8
  %15 = alloca ptr, align 8
  store ptr %0, ptr %9, align 8
  store i32 %1, ptr %10, align 4
  store ptr %2, ptr %11, align 8
  store ptr %3, ptr %12, align 8
  store ptr %4, ptr %13, align 8
  store ptr %5, ptr %14, align 8
  store ptr %6, ptr %15, align 8
  %16 = load ptr, ptr %13, align 8
  %17 = getelementptr inbounds %struct._dcerpc_info, ptr %16, i32 0, i32 4
  %18 = load i32, ptr %17, align 4
  %19 = icmp ne i32 %18, 0
  br i1 %19, label %20, label %22

20:                                               ; preds = %7
  %21 = load i32, ptr %10, align 4
  store i32 %21, ptr %8, align 4
  br label %35

22:                                               ; preds = %7
  %23 = load ptr, ptr %9, align 8
  %24 = load i32, ptr %10, align 4
  %25 = load ptr, ptr %11, align 8
  %26 = load ptr, ptr %12, align 8
  %27 = load ptr, ptr %13, align 8
  %28 = load ptr, ptr %14, align 8
  %29 = load i32, ptr @hf_drsuapi_drsuapi_DsBindInfoCtr_info, align 4
  %30 = load ptr, ptr %15, align 8
  %31 = load i64, ptr %30, align 8
  %32 = trunc i64 %31 to i32
  %33 = call i32 @drsuapi_dissect_DsBindInfo(ptr noundef %23, i32 noundef %24, ptr noundef %25, ptr noundef %26, ptr noundef %27, ptr noundef %28, i32 noundef %29, i32 noundef %32)
  store i32 %33, ptr %10, align 4
  %34 = load i32, ptr %10, align 4
  store i32 %34, ptr %8, align 4
  br label %35

35:                                               ; preds = %22, %20
  %36 = load i32, ptr %8, align 4
  ret i32 %36
}

; Function Attrs: nounwind uwtable
define internal i32 @drsuapi_dissect_element_DsBindInfoCtr_length(ptr noundef %0, i32 noundef %1, ptr noundef %2, ptr noundef %3, ptr noundef %4, ptr noundef %5, ptr noundef %6) #0 {
  %8 = alloca ptr, align 8
  %9 = alloca i32, align 4
  %10 = alloca ptr, align 8
  %11 = alloca ptr, align 8
  %12 = alloca ptr, align 8
  %13 = alloca ptr, align 8
  %14 = alloca ptr, align 8
  store ptr %0, ptr %8, align 8
  store i32 %1, ptr %9, align 4
  store ptr %2, ptr %10, align 8
  store ptr %3, ptr %11, align 8
  store ptr %4, ptr %12, align 8
  store ptr %5, ptr %13, align 8
  store ptr %6, ptr %14, align 8
  %15 = load ptr, ptr %8, align 8
  %16 = load i32, ptr %9, align 4
  %17 = load ptr, ptr %10, align 8
  %18 = load ptr, ptr %11, align 8
  %19 = load ptr, ptr %12, align 8
  %20 = load ptr, ptr %13, align 8
  %21 = load i32, ptr @hf_drsuapi_drsuapi_DsBindInfoCtr_length, align 4
  %22 = call i32 @dissect_ndr_uint3264(ptr noundef %15, i32 noundef %16, ptr noundef %17, ptr noundef %18, ptr noundef %19, ptr noundef %20, i32 noundef %21, ptr noundef null)
  store i32 %22, ptr %9, align 4
  %23 = load i32, ptr %9, align 4
  ret i32 %23
}

; Function Attrs: nounwind uwtable
define hidden i32 @drsuapi_dissect_struct_DsBindInfoCtr(ptr noundef %0, i32 noundef %1, ptr noundef %2, ptr noundef %3, ptr noundef %4, ptr noundef %5, i32 noundef %6, i32 noundef %7) #0 {
  %9 = alloca ptr, align 8
  %10 = alloca i32, align 4
  %11 = alloca ptr, align 8
  %12 = alloca ptr, align 8
  %13 = alloca ptr, align 8
  %14 = alloca ptr, align 8
  %15 = alloca i32, align 4
  %16 = alloca i32, align 4
  %17 = alloca i64, align 8
  %18 = alloca ptr, align 8
  %19 = alloca ptr, align 8
  %20 = alloca i32, align 4
  %21 = alloca i32, align 4
  store ptr %0, ptr %9, align 8
  store i32 %1, ptr %10, align 4
  store ptr %2, ptr %11, align 8
  store ptr %3, ptr %12, align 8
  store ptr %4, ptr %13, align 8
  store ptr %5, ptr %14, align 8
  store i32 %6, ptr %15, align 4
  store i32 %7, ptr %16, align 4
  store i64 0, ptr %17, align 8
  store ptr null, ptr %18, align 8
  store ptr null, ptr %19, align 8
  %22 = load ptr, ptr %13, align 8
  %23 = getelementptr inbounds %struct._dcerpc_info, ptr %22, i32 0, i32 5
  %24 = load i32, ptr %23, align 8
  store i32 %24, ptr %20, align 4
  %25 = load ptr, ptr %13, align 8
  %26 = getelementptr inbounds %struct._dcerpc_info, ptr %25, i32 0, i32 5
  store i32 1, ptr %26, align 8
  %27 = load i32, ptr %10, align 4
  store i32 %27, ptr %21, align 4
  %28 = load ptr, ptr %12, align 8
  %29 = icmp ne ptr %28, null
  br i1 %29, label %30, label %39

30:                                               ; preds = %8
  %31 = load ptr, ptr %12, align 8
  %32 = load i32, ptr %15, align 4
  %33 = load ptr, ptr %9, align 8
  %34 = load i32, ptr %10, align 4
  %35 = call ptr @proto_tree_add_item(ptr noundef %31, i32 noundef %32, ptr noundef %33, i32 noundef %34, i32 noundef -1, i32 noundef 0)
  store ptr %35, ptr %18, align 8
  %36 = load ptr, ptr %18, align 8
  %37 = load i32, ptr @ett_drsuapi_drsuapi_DsBindInfoCtr, align 4
  %38 = call ptr @proto_item_add_subtree(ptr noundef %36, i32 noundef %37)
  store ptr %38, ptr %19, align 8
  br label %39

39:                                               ; preds = %30, %8
  %40 = load ptr, ptr %9, align 8
  %41 = load i32, ptr %10, align 4
  %42 = load ptr, ptr %11, align 8
  %43 = load ptr, ptr %19, align 8
  %44 = load ptr, ptr %13, align 8
  %45 = load ptr, ptr %14, align 8
  %46 = call i32 @drsuapi_dissect_element_DsBindInfoCtr_length(ptr noundef %40, i32 noundef %41, ptr noundef %42, ptr noundef %43, ptr noundef %44, ptr noundef %45, ptr noundef %17)
  store i32 %46, ptr %10, align 4
  %47 = load ptr, ptr %9, align 8
  %48 = load i32, ptr %10, align 4
  %49 = load ptr, ptr %11, align 8
  %50 = load ptr, ptr %19, align 8
  %51 = load ptr, ptr %13, align 8
  %52 = load ptr, ptr %14, align 8
  %53 = call i32 @drsuapi_dissect_element_DsBindInfoCtr_info(ptr noundef %47, i32 noundef %48, ptr noundef %49, ptr noundef %50, ptr noundef %51, ptr noundef %52, ptr noundef %17)
  store i32 %53, ptr %10, align 4
  %54 = load ptr, ptr %18, align 8
  %55 = load i32, ptr %10, align 4
  %56 = load i32, ptr %21, align 4
  %57 = sub i32 %55, %56
  call void @proto_item_set_len(ptr noundef %54, i32 noundef %57)
  %58 = load i32, ptr %20, align 4
  %59 = load ptr, ptr %13, align 8
  %60 = getelementptr inbounds %struct._dcerpc_info, ptr %59, i32 0, i32 5
  store i32 %58, ptr %60, align 8
  %61 = load i32, ptr %10, align 4
  ret i32 %61
}