; Function Attrs: nounwind uwtable
define hidden i32 @drsuapi_dissect_struct_DsBindInfoCtr(ptr noundef %0, i32 noundef %1, ptr noundef %2, ptr noundef %3, ptr noundef %4, ptr noundef %5, i32 noundef %6, i32 %7) local_unnamed_addr #0 {
  %9 = alloca ptr, align 8
  %10 = alloca i32, align 4
  %11 = getelementptr inbounds nuw i8, ptr %4, i64 32
  %12 = load i32, ptr %11, align 8
  store i32 1, ptr %11, align 8
  %.not = icmp eq ptr %3, null
  br i1 %.not, label %17, label %13

13:                                               ; preds = %8
  %14 = tail call ptr @proto_tree_add_item(ptr noundef nonnull %3, i32 noundef %6, ptr noundef %0, i32 noundef %1, i32 noundef -1, i32 noundef 0) #5
  %15 = load i32, ptr @ett_drsuapi_drsuapi_DsBindInfoCtr, align 4
  %16 = tail call ptr @proto_item_add_subtree(ptr noundef %14, i32 noundef %15) #5
  br label %17

17:                                               ; preds = %13, %8
  %.026 = phi ptr [ %16, %13 ], [ null, %8 ]
  %.0 = phi ptr [ %14, %13 ], [ null, %8 ]
  %18 = load i32, ptr @hf_drsuapi_drsuapi_DsBindInfoCtr_length, align 4
  %19 = tail call i32 @dissect_ndr_uint3264(ptr noundef %0, i32 noundef %1, ptr noundef %2, ptr noundef %.026, ptr noundef nonnull %4, ptr noundef %5, i32 noundef %18, ptr noundef null) #5
  %20 = getelementptr inbounds nuw i8, ptr %4, i64 28
  %21 = load i32, ptr %20, align 4
  %.not.i = icmp eq i32 %21, 0
  br i1 %.not.i, label %22, label %drsuapi_dissect_element_DsBindInfoCtr_info.exit

22:                                               ; preds = %17
  %23 = load i32, ptr @hf_drsuapi_drsuapi_DsBindInfoCtr_info, align 4
  call void @llvm.lifetime.start.p0(i64 8, ptr nonnull %9)
  call void @llvm.lifetime.start.p0(i64 4, ptr nonnull %10)
  store ptr null, ptr %9, align 8
  %.not.i.i = icmp eq ptr %.026, null
  br i1 %.not.i.i, label %27, label %24

24:                                               ; preds = %22
  %25 = load i32, ptr @ett_drsuapi_drsuapi_DsBindInfo, align 4
  %26 = call ptr @proto_tree_add_subtree(ptr noundef nonnull %.026, ptr noundef %0, i32 noundef %19, i32 noundef -1, i32 noundef %25, ptr noundef nonnull %9, ptr noundef nonnull @.str.1431) #5
  br label %27

27:                                               ; preds = %24, %22
  %.053.i.i = phi ptr [ %26, %24 ], [ null, %22 ]
  %28 = call i32 @dissect_ndr_uint32(ptr noundef %0, i32 noundef %19, ptr noundef %2, ptr noundef %.053.i.i, ptr noundef nonnull %4, ptr noundef %5, i32 noundef %23, ptr noundef nonnull %10) #5
  %29 = load i32, ptr %20, align 4
  %.not55.i.i = icmp ne i32 %29, 0
  %30 = and i32 %28, 3
  %.not56.i.i = icmp eq i32 %30, 0
  %or.cond.i.i = select i1 %.not55.i.i, i1 true, i1 %.not56.i.i
  %31 = and i32 %28, -4
  %32 = add i32 %31, 4
  %.0.i.i = select i1 %or.cond.i.i, i32 %28, i32 %32
  %33 = load i32, ptr %10, align 4
  %34 = add i32 %33, -24
  %35 = call i32 @llvm.fshl.i32(i32 %34, i32 %34, i32 30)
  switch i32 %35, label %51 [
    i32 0, label %36
    i32 1, label %39
    i32 2, label %42
    i32 6, label %45
    i32 7, label %48
  ]

36:                                               ; preds = %27
  %37 = load i32, ptr @hf_drsuapi_drsuapi_DsBindInfo_info24, align 4
  %38 = call i32 @drsuapi_dissect_struct_DsBindInfo24(ptr noundef %0, i32 noundef %.0.i.i, ptr noundef %2, ptr noundef %.053.i.i, ptr noundef nonnull %4, ptr noundef %5, i32 noundef %37, i32 poison)
  br label %drsuapi_dissect_DsBindInfo.exit.i

39:                                               ; preds = %27
  %40 = load i32, ptr @hf_drsuapi_drsuapi_DsBindInfo_info28, align 4
  %41 = call i32 @drsuapi_dissect_struct_DsBindInfo28(ptr noundef %0, i32 noundef %.0.i.i, ptr noundef %2, ptr noundef %.053.i.i, ptr noundef nonnull %4, ptr noundef %5, i32 noundef %40, i32 poison)
  br label %drsuapi_dissect_DsBindInfo.exit.i

42:                                               ; preds = %27
  %43 = load i32, ptr @hf_drsuapi_drsuapi_DsBindInfo_info32, align 4
  %44 = call i32 @drsuapi_dissect_struct_DsBindInfo32(ptr noundef %0, i32 noundef %.0.i.i, ptr noundef %2, ptr noundef %.053.i.i, ptr noundef nonnull %4, ptr noundef %5, i32 noundef %43, i32 poison)
  br label %drsuapi_dissect_DsBindInfo.exit.i

45:                                               ; preds = %27
  %46 = load i32, ptr @hf_drsuapi_drsuapi_DsBindInfo_info48, align 4
  %47 = call i32 @drsuapi_dissect_struct_DsBindInfo48(ptr noundef %0, i32 noundef %.0.i.i, ptr noundef %2, ptr noundef %.053.i.i, ptr noundef nonnull %4, ptr noundef %5, i32 noundef %46, i32 poison)
  br label %drsuapi_dissect_DsBindInfo.exit.i

48:                                               ; preds = %27
  %49 = load i32, ptr @hf_drsuapi_drsuapi_DsBindInfo_info52, align 4
  %50 = call i32 @drsuapi_dissect_struct_DsBindInfo52(ptr noundef %0, i32 noundef %.0.i.i, ptr noundef %2, ptr noundef %.053.i.i, ptr noundef nonnull %4, ptr noundef %5, i32 noundef %49, i32 poison)
  br label %drsuapi_dissect_DsBindInfo.exit.i

51:                                               ; preds = %27
  %52 = load i32, ptr @hf_drsuapi_drsuapi_DsBindInfo_Fallback, align 4
  %53 = call i32 @drsuapi_dissect_struct_DsBindInfoFallBack(ptr noundef %0, i32 noundef %.0.i.i, ptr noundef %2, ptr noundef %.053.i.i, ptr noundef nonnull %4, ptr noundef %5, i32 noundef %52, i32 poison)
  br label %drsuapi_dissect_DsBindInfo.exit.i

drsuapi_dissect_DsBindInfo.exit.i:                ; preds = %51, %48, %45, %42, %39, %36
  %.1.i.i = phi i32 [ %53, %51 ], [ %50, %48 ], [ %47, %45 ], [ %44, %42 ], [ %41, %39 ], [ %38, %36 ]
  %54 = load ptr, ptr %9, align 8
  %55 = sub i32 %.1.i.i, %19
  call void @proto_item_set_len(ptr noundef %54, i32 noundef %55) #5
  call void @llvm.lifetime.end.p0(i64 8, ptr nonnull %9)
  call void @llvm.lifetime.end.p0(i64 4, ptr nonnull %10)
  br label %drsuapi_dissect_element_DsBindInfoCtr_info.exit

drsuapi_dissect_element_DsBindInfoCtr_info.exit:  ; preds = %17, %drsuapi_dissect_DsBindInfo.exit.i
  %.0.i = phi i32 [ %.1.i.i, %drsuapi_dissect_DsBindInfo.exit.i ], [ %19, %17 ]
  %56 = sub i32 %.0.i, %1
  call void @proto_item_set_len(ptr noundef %.0, i32 noundef %56) #5
  store i32 %12, ptr %11, align 8
  ret i32 %.0.i
}